#include <math.h>
#include <stdio.h>
#include <stdlib.h>
#include <string.h>

void main()
{int i,j,w;
 scanf("%d", &w);
   if ((w+12)%7==5)
	   {printf("1\n");
        printf("10\n");}
   if ((w+12)%7==6)
	   {printf("4\n");
        printf("7\n");}
   if ((w+12)%7==0)
	   {printf("9\n");
        printf("12\n");}
   if ((w+12)%7==1)
	   printf("6\n");
   if ((w+12)%7==2)
	   {printf("2\n");
        printf("3\n");
        printf("11\n");}
   if ((w+12)%7==3)
	   printf("8\n");
	if ((w+12)%7==4)
	   {
        printf("5\n");}
        
     
}