; ModuleID = '50/2108.c'
source_filename = "50/2108.c"
target datalayout = "e-m:e-p270:32:32-p271:32:32-p272:64:64-i64:64-f80:128-n8:16:32:64-S128"
target triple = "x86_64-pc-linux-gnu"

@.str = private unnamed_addr constant [3 x i8] c"%d\00", align 1
@.str.1 = private unnamed_addr constant [3 x i8] c"1\0A\00", align 1
@.str.2 = private unnamed_addr constant [4 x i8] c"10\0A\00", align 1
@.str.3 = private unnamed_addr constant [3 x i8] c"4\0A\00", align 1
@.str.4 = private unnamed_addr constant [3 x i8] c"7\0A\00", align 1
@.str.5 = private unnamed_addr constant [3 x i8] c"9\0A\00", align 1
@.str.6 = private unnamed_addr constant [4 x i8] c"12\0A\00", align 1
@.str.7 = private unnamed_addr constant [3 x i8] c"6\0A\00", align 1
@.str.8 = private unnamed_addr constant [3 x i8] c"2\0A\00", align 1
@.str.9 = private unnamed_addr constant [3 x i8] c"3\0A\00", align 1
@.str.10 = private unnamed_addr constant [4 x i8] c"11\0A\00", align 1
@.str.11 = private unnamed_addr constant [3 x i8] c"8\0A\00", align 1
@.str.12 = private unnamed_addr constant [3 x i8] c"5\0A\00", align 1

; Function Attrs: noinline nounwind uwtable
define dso_local void @main() #0 {
  %1 = alloca i32, align 4
  %2 = alloca i32, align 4
  %3 = alloca i32, align 4
  %4 = call i32 (i8*, ...) @__isoc99_scanf(i8* getelementptr inbounds ([3 x i8], [3 x i8]* @.str, i64 0, i64 0), i32* %3)
  %5 = load i32, i32* %3, align 4
  %6 = add nsw i32 %5, 12
  %7 = srem i32 %6, 7
  %8 = icmp eq i32 %7, 5
  br i1 %8, label %9, label %12

9:                                                ; preds = %0
  %10 = call i32 (i8*, ...) @printf(i8* getelementptr inbounds ([3 x i8], [3 x i8]* @.str.1, i64 0, i64 0))
  %11 = call i32 (i8*, ...) @printf(i8* getelementptr inbounds ([4 x i8], [4 x i8]* @.str.2, i64 0, i64 0))
  br label %12

12:                                               ; preds = %9, %0
  %13 = load i32, i32* %3, align 4
  %14 = add nsw i32 %13, 12
  %15 = srem i32 %14, 7
  %16 = icmp eq i32 %15, 6
  br i1 %16, label %17, label %20

17:                                               ; preds = %12
  %18 = call i32 (i8*, ...) @printf(i8* getelementptr inbounds ([3 x i8], [3 x i8]* @.str.3, i64 0, i64 0))
  %19 = call i32 (i8*, ...) @printf(i8* getelementptr inbounds ([3 x i8], [3 x i8]* @.str.4, i64 0, i64 0))
  br label %20

20:                                               ; preds = %17, %12
  %21 = load i32, i32* %3, align 4
  %22 = add nsw i32 %21, 12
  %23 = srem i32 %22, 7
  %24 = icmp eq i32 %23, 0
  br i1 %24, label %25, label %28

25:                                               ; preds = %20
  %26 = call i32 (i8*, ...) @printf(i8* getelementptr inbounds ([3 x i8], [3 x i8]* @.str.5, i64 0, i64 0))
  %27 = call i32 (i8*, ...) @printf(i8* getelementptr inbounds ([4 x i8], [4 x i8]* @.str.6, i64 0, i64 0))
  br label %28

28:                                               ; preds = %25, %20
  %29 = load i32, i32* %3, align 4
  %30 = add nsw i32 %29, 12
  %31 = srem i32 %30, 7
  %32 = icmp eq i32 %31, 1
  br i1 %32, label %33, label %35

33:                                               ; preds = %28
  %34 = call i32 (i8*, ...) @printf(i8* getelementptr inbounds ([3 x i8], [3 x i8]* @.str.7, i64 0, i64 0))
  br label %35

35:                                               ; preds = %33, %28
  %36 = load i32, i32* %3, align 4
  %37 = add nsw i32 %36, 12
  %38 = srem i32 %37, 7
  %39 = icmp eq i32 %38, 2
  br i1 %39, label %40, label %44

40:                                               ; preds = %35
  %41 = call i32 (i8*, ...) @printf(i8* getelementptr inbounds ([3 x i8], [3 x i8]* @.str.8, i64 0, i64 0))
  %42 = call i32 (i8*, ...) @printf(i8* getelementptr inbounds ([3 x i8], [3 x i8]* @.str.9, i64 0, i64 0))
  %43 = call i32 (i8*, ...) @printf(i8* getelementptr inbounds ([4 x i8], [4 x i8]* @.str.10, i64 0, i64 0))
  br label %44

44:                                               ; preds = %40, %35
  %45 = load i32, i32* %3, align 4
  %46 = add nsw i32 %45, 12
  %47 = srem i32 %46, 7
  %48 = icmp eq i32 %47, 3
  br i1 %48, label %49, label %51

49:                                               ; preds = %44
  %50 = call i32 (i8*, ...) @printf(i8* getelementptr inbounds ([3 x i8], [3 x i8]* @.str.11, i64 0, i64 0))
  br label %51

51:                                               ; preds = %49, %44
  %52 = load i32, i32* %3, align 4
  %53 = add nsw i32 %52, 12
  %54 = srem i32 %53, 7
  %55 = icmp eq i32 %54, 4
  br i1 %55, label %56, label %58

56:                                               ; preds = %51
  %57 = call i32 (i8*, ...) @printf(i8* getelementptr inbounds ([3 x i8], [3 x i8]* @.str.12, i64 0, i64 0))
  br label %58

58:                                               ; preds = %56, %51
  ret void
}

declare dso_local i32 @__isoc99_scanf(i8*, ...) #1

declare dso_local i32 @printf(i8*, ...) #1


!llvm.module.flags = !{!0}
!llvm.ident = !{!1}

!0 = !{i32 1, !"wchar_size", i32 4}
!1 = !{!"clang version 10.0.0-4ubuntu1 "}
